; ModuleID = 'source-C-CXX/25/1196.c'
source_filename = "source-C-CXX/25/1196.c"
target datalayout = "e-m:e-p270:32:32-p271:32:32-p272:64:64-i64:64-f80:128-n8:16:32:64-S128"
target triple = "x86_64-pc-linux-gnu"

; Function Attrs: nounwind sspstrong uwtable
define dso_local i32 @main() local_unnamed_addr #0 {
  %1 = alloca [255 x i8], align 16
  %2 = alloca [255 x i8], align 16
  %3 = getelementptr inbounds [255 x i8], [255 x i8]* %1, i64 0, i64 0
  call void @llvm.lifetime.start.p0i8(i64 255, i8* nonnull %3) #4
  %4 = getelementptr inbounds [255 x i8], [255 x i8]* %2, i64 0, i64 0
  call void @llvm.lifetime.start.p0i8(i64 255, i8* nonnull %4) #4
  %5 = call i32 (i8*, ...) bitcast (i32 (...)* @gets to i32 (i8*, ...)*)(i8* nonnull %3) #4
  br label %6

6:                                                ; preds = %22, %0
  %7 = phi i64 [ %25, %22 ], [ 0, %0 ]
  %8 = phi i32 [ %23, %22 ], [ 0, %0 ]
  %9 = phi i32 [ %24, %22 ], [ 0, %0 ]
  %10 = getelementptr inbounds [255 x i8], [255 x i8]* %1, i64 0, i64 %7
  %11 = load i8, i8* %10, align 1, !tbaa !5
  switch i8 %11, label %17 [
    i8 0, label %26
    i8 32, label %12
  ]

12:                                               ; preds = %6
  %13 = add nsw i64 %7, -1
  %14 = getelementptr inbounds [255 x i8], [255 x i8]* %1, i64 0, i64 %13
  %15 = load i8, i8* %14, align 1, !tbaa !5
  %16 = icmp eq i8 %15, 32
  br i1 %16, label %22, label %17

17:                                               ; preds = %6, %12
  %18 = sext i32 %8 to i64
  %19 = getelementptr inbounds [255 x i8], [255 x i8]* %2, i64 0, i64 %18
  store i8 %11, i8* %19, align 1, !tbaa !5
  %20 = add nsw i32 %8, 1
  %21 = add nsw i32 %9, 1
  br label %22

22:                                               ; preds = %12, %17
  %23 = phi i32 [ %20, %17 ], [ %8, %12 ]
  %24 = phi i32 [ %21, %17 ], [ %9, %12 ]
  %25 = add nuw i64 %7, 1
  br label %6, !llvm.loop !8

26:                                               ; preds = %6
  %27 = sext i32 %9 to i64
  %28 = getelementptr inbounds [255 x i8], [255 x i8]* %2, i64 0, i64 %27
  store i8 0, i8* %28, align 1, !tbaa !5
  %29 = call i32 @puts(i8* nonnull %4)
  call void @llvm.lifetime.end.p0i8(i64 255, i8* nonnull %4) #4
  call void @llvm.lifetime.end.p0i8(i64 255, i8* nonnull %3) #4
  ret i32 0
}

; Function Attrs: argmemonly mustprogress nofree nosync nounwind willreturn
declare void @llvm.lifetime.start.p0i8(i64 immarg, i8* nocapture) #1

declare i32 @gets(...) local_unnamed_addr #2

; Function Attrs: nofree nounwind
declare noundef i32 @puts(i8* nocapture noundef readonly) local_unnamed_addr #3

; Function Attrs: argmemonly mustprogress nofree nosync nounwind willreturn
declare void @llvm.lifetime.end.p0i8(i64 immarg, i8* nocapture) #1


!llvm.module.flags = !{!0, !1, !2, !3}
!llvm.ident = !{!4}

!0 = !{i32 1, !"wchar_size", i32 4}
!1 = !{i32 7, !"PIC Level", i32 2}
!2 = !{i32 7, !"PIE Level", i32 2}
!3 = !{i32 7, !"uwtable", i32 1}
!4 = !{!"clang version 13.0.0"}
!5 = !{!6, !6, i64 0}
!6 = !{!"omnipotent char", !7, i64 0}
!7 = !{!"Simple C/C++ TBAA"}
!8 = distinct !{!8, !9}
!9 = !{!"llvm.loop.mustprogress"}
